; Function Attrs: mustprogress nofree norecurse nosync nounwind willreturn memory(write, argmem: readwrite, inaccessiblemem: none) uwtable
define hidden noundef ptr @lxb_html_tokenizer_state_plaintext_before(ptr nocapture noundef %0, ptr noundef returned %1, ptr nocapture noundef readnone %2) local_unnamed_addr #0 {
  %4 = getelementptr inbounds i8, ptr %0, i64 236
  %5 = load i8, ptr %4, align 4
  %6 = and i8 %5, 1
  %7 = icmp eq i8 %6, 0
  br i1 %7, label %8, label %22

8:                                                ; preds = %3
  %9 = getelementptr inbounds i8, ptr %0, i64 128
  %10 = load ptr, ptr %9, align 8
  %11 = getelementptr inbounds i8, ptr %0, i64 136
  store ptr %10, ptr %11, align 8
  %12 = getelementptr inbounds i8, ptr %0, i64 64
  %13 = load ptr, ptr %12, align 8
  store ptr %1, ptr %13, align 8
  %14 = getelementptr inbounds i8, ptr %0, i64 168
  %15 = load i64, ptr %14, align 8
  %16 = load ptr, ptr %12, align 8
  %17 = getelementptr inbounds i8, ptr %16, i64 16
  store i64 %15, ptr %17, align 8
  %18 = getelementptr inbounds i8, ptr %0, i64 176
  %19 = load i64, ptr %18, align 8
  %20 = load ptr, ptr %12, align 8
  %21 = getelementptr inbounds i8, ptr %20, i64 24
  store i64 %19, ptr %21, align 8
  br label %22

22:                                               ; preds = %8, %3
  %23 = getelementptr inbounds i8, ptr %0, i64 64
  %24 = load ptr, ptr %23, align 8
  %25 = getelementptr inbounds i8, ptr %24, i64 80
  store i64 2, ptr %25, align 8
  store ptr @lxb_html_tokenizer_state_plaintext, ptr %0, align 8
  ret ptr %1
}